; Function Attrs: mustprogress nofree norecurse nosync nounwind willreturn memory(none) uwtable
define noundef signext range(i8 0, 2) i8 @_ZN6icu_7712PatternProps12isWhiteSpaceEi(i32 noundef %0) local_unnamed_addr #0 align 2 {
  %2 = icmp slt i32 %0, 0
  br i1 %2, label %17, label %3

3:                                                ; preds = %1
  %4 = icmp samesign ult i32 %0, 256
  br i1 %4, label %5, label %11

5:                                                ; preds = %3
  %6 = zext nneg i32 %0 to i64
  %7 = getelementptr inbounds nuw [256 x i8], ptr @_ZN6icu_77L6latin1E, i64 0, i64 %6
  %8 = load i8, ptr %7, align 1, !tbaa !3
  %9 = lshr i8 %8, 2
  %10 = and i8 %9, 1
  br label %17

11:                                               ; preds = %3
  %12 = add nsw i32 %0, -8206
  %or.cond = icmp ult i32 %12, 28
  br i1 %or.cond, label %13, label %17

13:                                               ; preds = %11
  %14 = add nsw i32 %0, -8232
  %15 = icmp ult i32 %14, -24
  %16 = zext i1 %15 to i8
  br label %17

17:                                               ; preds = %11, %1, %13, %5
  %.0 = phi i8 [ %10, %5 ], [ %16, %13 ], [ 0, %1 ], [ 0, %11 ]
  ret i8 %.0
}